target datalayout = "e-m:e-p270:32:32-p271:32:32-p272:64:64-i64:64-i128:128-f80:128-n8:16:32:64-S128"
target triple = "x86_64-pc-linux-gnu"

@_ZN12_GLOBAL__N_113g_path_localeE = internal global ptr null, align 8

; Function Attrs: mustprogress nounwind uwtable
define internal void @_ZN12_GLOBAL__N_119path_locale_deleterD2Ev(ptr noundef nonnull align 1 dereferenceable(1) %0) unnamed_addr #2 align 2 {
  %2 = alloca ptr, align 8
  store ptr %0, ptr %2, align 8, !tbaa !3
  %3 = load ptr, ptr @_ZN12_GLOBAL__N_113g_path_localeE, align 8, !tbaa !3
  %4 = icmp eq ptr %3, null
  br i1 %4, label %6, label %5

5:                                                ; preds = %1
  call void @_ZNSt6localeD1Ev(ptr noundef nonnull align 8 dereferenceable(8) %3) #11
  call void @_ZdlPvm(ptr noundef %3, i64 noundef 8) #20
  br label %6

6:                                                ; preds = %5, %1
  store ptr null, ptr @_ZN12_GLOBAL__N_113g_path_localeE, align 8, !tbaa !3
  ret void
}