; Function Attrs: mustprogress nounwind uwtable
define internal void @_ZN12_GLOBAL__N_119path_locale_deleterD2Ev(ptr nocapture nonnull readnone align 1 %0) unnamed_addr #10 align 2 {
  %2 = load ptr, ptr @_ZN12_GLOBAL__N_113g_path_localeE, align 8, !tbaa !68
  %3 = icmp eq ptr %2, null
  br i1 %3, label %5, label %4

4:                                                ; preds = %1
  tail call void @_ZNSt6localeD1Ev(ptr noundef nonnull align 8 dereferenceable(8) %2) #21
  tail call void @_ZdlPvm(ptr noundef nonnull %2, i64 noundef 8) #24
  br label %5

5:                                                ; preds = %4, %1
  store ptr null, ptr @_ZN12_GLOBAL__N_113g_path_localeE, align 8, !tbaa !68
  ret void
}